; Function Attrs: nounwind uwtable
define range(i32 -50, 1) i32 @CVodeGetQuadSens1(ptr noundef captures(address_is_null) %0, ptr noundef writeonly captures(none) %1, i32 noundef %2, ptr noundef %3) local_unnamed_addr #0 {
  %5 = icmp eq ptr %0, null
  br i1 %5, label %6, label %7

6:                                                ; preds = %4
  tail call void (ptr, i32, i32, ptr, ptr, ptr, ...) @cvProcessError(ptr noundef null, i32 noundef -21, i32 noundef 4193, ptr noundef nonnull @__func__.CVodeGetQuadSens1, ptr noundef nonnull @.str, ptr noundef nonnull @.str.4)
  br label %11

7:                                                ; preds = %4
  %8 = getelementptr inbounds nuw i8, ptr %0, i64 1040
  %9 = load double, ptr %8, align 8, !tbaa !220
  store double %9, ptr %1, align 8, !tbaa !69
  %10 = tail call i32 @CVodeGetQuadSensDky1(ptr noundef nonnull %0, double noundef %9, i32 noundef 0, i32 noundef %2, ptr noundef %3)
  br label %11

11:                                               ; preds = %7, %6
  %.0 = phi i32 [ -21, %6 ], [ %10, %7 ]
  ret i32 %.0
}